; Function Attrs: nounwind uwtable
define ptr @l_Array_forIn_x27Unsafe_loop___at_Lean_Elab_printImports___spec__2___boxed(ptr noundef %0, ptr noundef %1, ptr noundef %2, ptr noundef %3, ptr noundef %4, ptr noundef %5, ptr noundef %6) local_unnamed_addr #0 {
  %8 = getelementptr i8, ptr %3, i64 8
  %.val26 = load i64, ptr %8, align 8, !tbaa !12
  %9 = ptrtoint ptr %3 to i64
  %10 = and i64 %9, 1
  %.not = icmp eq i64 %10, 0
  br i1 %.not, label %11, label %lean_dec.exit17

11:                                               ; preds = %7
  %12 = load i32, ptr %3, align 4, !tbaa !8
  %13 = icmp sgt i32 %12, 1
  br i1 %13, label %14, label %16, !prof !11

14:                                               ; preds = %11
  %15 = add nsw i32 %12, -1
  store i32 %15, ptr %3, align 4, !tbaa !8
  br label %lean_dec.exit17

16:                                               ; preds = %11
  %.not.i = icmp eq i32 %12, 0
  br i1 %.not.i, label %lean_dec.exit17, label %17

17:                                               ; preds = %16
  tail call void @lean_dec_ref_cold(ptr noundef nonnull %3) #5
  br label %lean_dec.exit17

lean_dec.exit17:                                  ; preds = %17, %16, %14, %7
  %18 = getelementptr i8, ptr %4, i64 8
  %.val = load i64, ptr %18, align 8, !tbaa !12
  %19 = ptrtoint ptr %4 to i64
  %20 = and i64 %19, 1
  %.not27 = icmp eq i64 %20, 0
  br i1 %.not27, label %21, label %lean_dec.exit16

21:                                               ; preds = %lean_dec.exit17
  %22 = load i32, ptr %4, align 4, !tbaa !8
  %23 = icmp sgt i32 %22, 1
  br i1 %23, label %24, label %26, !prof !11

24:                                               ; preds = %21
  %25 = add nsw i32 %22, -1
  store i32 %25, ptr %4, align 4, !tbaa !8
  br label %lean_dec.exit16

26:                                               ; preds = %21
  %.not.i18 = icmp eq i32 %22, 0
  br i1 %.not.i18, label %lean_dec.exit16, label %27

27:                                               ; preds = %26
  tail call void @lean_dec_ref_cold(ptr noundef nonnull %4) #5
  br label %lean_dec.exit16

lean_dec.exit16:                                  ; preds = %27, %26, %24, %lean_dec.exit17
  %28 = tail call ptr @l_Array_forIn_x27Unsafe_loop___at_Lean_Elab_printImports___spec__2(ptr poison, ptr poison, ptr noundef %2, i64 noundef %.val26, i64 noundef %.val, ptr noundef %5, ptr noundef %6)
  %29 = ptrtoint ptr %2 to i64
  %30 = and i64 %29, 1
  %.not28 = icmp eq i64 %30, 0
  br i1 %.not28, label %31, label %lean_dec.exit15

31:                                               ; preds = %lean_dec.exit16
  %32 = load i32, ptr %2, align 4, !tbaa !8
  %33 = icmp sgt i32 %32, 1
  br i1 %33, label %34, label %36, !prof !11

34:                                               ; preds = %31
  %35 = add nsw i32 %32, -1
  store i32 %35, ptr %2, align 4, !tbaa !8
  br label %lean_dec.exit15

36:                                               ; preds = %31
  %.not.i20 = icmp eq i32 %32, 0
  br i1 %.not.i20, label %lean_dec.exit15, label %37

37:                                               ; preds = %36
  tail call void @lean_dec_ref_cold(ptr noundef nonnull %2) #5
  br label %lean_dec.exit15

lean_dec.exit15:                                  ; preds = %37, %36, %34, %lean_dec.exit16
  %38 = ptrtoint ptr %1 to i64
  %39 = and i64 %38, 1
  %.not29 = icmp eq i64 %39, 0
  br i1 %.not29, label %40, label %lean_dec.exit14

40:                                               ; preds = %lean_dec.exit15
  %41 = load i32, ptr %1, align 4, !tbaa !8
  %42 = icmp sgt i32 %41, 1
  br i1 %42, label %43, label %45, !prof !11

43:                                               ; preds = %40
  %44 = add nsw i32 %41, -1
  store i32 %44, ptr %1, align 4, !tbaa !8
  br label %lean_dec.exit14

45:                                               ; preds = %40
  %.not.i22 = icmp eq i32 %41, 0
  br i1 %.not.i22, label %lean_dec.exit14, label %46

46:                                               ; preds = %45
  tail call void @lean_dec_ref_cold(ptr noundef nonnull %1) #5
  br label %lean_dec.exit14

lean_dec.exit14:                                  ; preds = %46, %45, %43, %lean_dec.exit15
  %47 = ptrtoint ptr %0 to i64
  %48 = and i64 %47, 1
  %.not30 = icmp eq i64 %48, 0
  br i1 %.not30, label %49, label %lean_dec.exit

49:                                               ; preds = %lean_dec.exit14
  %50 = load i32, ptr %0, align 4, !tbaa !8
  %51 = icmp sgt i32 %50, 1
  br i1 %51, label %52, label %54, !prof !11

52:                                               ; preds = %49
  %53 = add nsw i32 %50, -1
  store i32 %53, ptr %0, align 4, !tbaa !8
  br label %lean_dec.exit

54:                                               ; preds = %49
  %.not.i24 = icmp eq i32 %50, 0
  br i1 %.not.i24, label %lean_dec.exit, label %55

55:                                               ; preds = %54
  tail call void @lean_dec_ref_cold(ptr noundef nonnull %0) #5
  br label %lean_dec.exit

lean_dec.exit:                                    ; preds = %55, %54, %52, %lean_dec.exit14
  ret ptr %28
}